; ModuleID = '62/2750.c'
source_filename = "62/2750.c"
target datalayout = "e-m:e-p270:32:32-p271:32:32-p272:64:64-i64:64-f80:128-n8:16:32:64-S128"
target triple = "x86_64-pc-linux-gnu"

@.str = private unnamed_addr constant [3 x i8] c"%s\00", align 1

; Function Attrs: noinline nounwind uwtable
define dso_local i32 @main() #0 {
  %1 = alloca i32, align 4
  %2 = alloca [10000 x i8], align 16
  %3 = alloca i32, align 4
  %4 = alloca i32, align 4
  store i32 0, i32* %1, align 4
  %5 = getelementptr inbounds [10000 x i8], [10000 x i8]* %2, i64 0, i64 0
  %6 = call i32 (i8*, ...) bitcast (i32 (...)* @gets to i32 (i8*, ...)*)(i8* %5)
  store i32 0, i32* %3, align 4
  br label %7

7:                                                ; preds = %56, %0
  %8 = load i32, i32* %3, align 4
  %9 = sext i32 %8 to i64
  %10 = getelementptr inbounds [10000 x i8], [10000 x i8]* %2, i64 0, i64 %9
  %11 = load i8, i8* %10, align 1
  %12 = sext i8 %11 to i32
  %13 = icmp ne i32 %12, 0
  br i1 %13, label %14, label %59

14:                                               ; preds = %7
  %15 = load i32, i32* %3, align 4
  %16 = sext i32 %15 to i64
  %17 = getelementptr inbounds [10000 x i8], [10000 x i8]* %2, i64 0, i64 %16
  %18 = load i8, i8* %17, align 1
  %19 = sext i8 %18 to i32
  %20 = icmp eq i32 %19, 32
  br i1 %20, label %21, label %55

21:                                               ; preds = %14
  br label %22

22:                                               ; preds = %21, %53
  %23 = load i32, i32* %3, align 4
  %24 = add nsw i32 %23, 1
  %25 = sext i32 %24 to i64
  %26 = getelementptr inbounds [10000 x i8], [10000 x i8]* %2, i64 0, i64 %25
  %27 = load i8, i8* %26, align 1
  %28 = sext i8 %27 to i32
  %29 = icmp eq i32 %28, 32
  br i1 %29, label %30, label %52

30:                                               ; preds = %22
  %31 = load i32, i32* %3, align 4
  store i32 %31, i32* %4, align 4
  br label %32

32:                                               ; preds = %48, %30
  %33 = load i32, i32* %4, align 4
  %34 = sext i32 %33 to i64
  %35 = getelementptr inbounds [10000 x i8], [10000 x i8]* %2, i64 0, i64 %34
  %36 = load i8, i8* %35, align 1
  %37 = sext i8 %36 to i32
  %38 = icmp ne i32 %37, 0
  br i1 %38, label %39, label %51

39:                                               ; preds = %32
  %40 = load i32, i32* %4, align 4
  %41 = add nsw i32 %40, 1
  %42 = sext i32 %41 to i64
  %43 = getelementptr inbounds [10000 x i8], [10000 x i8]* %2, i64 0, i64 %42
  %44 = load i8, i8* %43, align 1
  %45 = load i32, i32* %4, align 4
  %46 = sext i32 %45 to i64
  %47 = getelementptr inbounds [10000 x i8], [10000 x i8]* %2, i64 0, i64 %46
  store i8 %44, i8* %47, align 1
  br label %48

48:                                               ; preds = %39
  %49 = load i32, i32* %4, align 4
  %50 = add nsw i32 %49, 1
  store i32 %50, i32* %4, align 4
  br label %32

51:                                               ; preds = %32
  br label %53

52:                                               ; preds = %22
  br label %54

53:                                               ; preds = %51
  br label %22

54:                                               ; preds = %52
  br label %55

55:                                               ; preds = %54, %14
  br label %56

56:                                               ; preds = %55
  %57 = load i32, i32* %3, align 4
  %58 = add nsw i32 %57, 1
  store i32 %58, i32* %3, align 4
  br label %7

59:                                               ; preds = %7
  %60 = getelementptr inbounds [10000 x i8], [10000 x i8]* %2, i64 0, i64 0
  %61 = call i32 (i8*, ...) @printf(i8* getelementptr inbounds ([3 x i8], [3 x i8]* @.str, i64 0, i64 0), i8* %60)
  ret i32 0
}

declare dso_local i32 @gets(...) #1

declare dso_local i32 @printf(i8*, ...) #1


!llvm.module.flags = !{!0}
!llvm.ident = !{!1}

!0 = !{i32 1, !"wchar_size", i32 4}
!1 = !{!"clang version 10.0.0-4ubuntu1 "}
