; ModuleID = 'source-C-CXX/61/2750.c'
source_filename = "source-C-CXX/61/2750.c"
target datalayout = "e-m:e-p270:32:32-p271:32:32-p272:64:64-i64:64-f80:128-n8:16:32:64-S128"
target triple = "x86_64-pc-linux-gnu"

@.str = private unnamed_addr constant [3 x i8] c"%s\00", align 1

; Function Attrs: nounwind sspstrong uwtable
define dso_local i32 @main() local_unnamed_addr #0 {
  %1 = alloca [10000 x i8], align 16
  %2 = getelementptr inbounds [10000 x i8], [10000 x i8]* %1, i64 0, i64 0
  call void @llvm.lifetime.start.p0i8(i64 10000, i8* nonnull %2) #4
  %3 = call i32 (i8*, ...) bitcast (i32 (...)* @gets to i32 (i8*, ...)*)(i8* nonnull %2) #4
  br label %4

4:                                                ; preds = %10, %0
  %5 = phi i64 [ 0, %0 ], [ %11, %10 ]
  %6 = getelementptr inbounds [10000 x i8], [10000 x i8]* %1, i64 0, i64 %5
  %7 = load i8, i8* %6, align 1, !tbaa !5
  switch i8 %7, label %8 [
    i8 0, label %33
    i8 32, label %12
  ]

8:                                                ; preds = %4
  %9 = add nuw nsw i64 %5, 1
  br label %10

10:                                               ; preds = %17, %8, %12
  %11 = phi i64 [ %9, %8 ], [ %13, %12 ], [ %13, %17 ]
  br label %4, !llvm.loop !8

12:                                               ; preds = %4
  %13 = add nuw nsw i64 %5, 1
  %14 = getelementptr inbounds [10000 x i8], [10000 x i8]* %1, i64 0, i64 %13
  %15 = load i8, i8* %14, align 1, !tbaa !5
  %16 = icmp eq i8 %15, 32
  br i1 %16, label %22, label %10

17:                                               ; preds = %25
  %18 = load i8, i8* %14, align 1, !tbaa !5
  %19 = icmp eq i8 %18, 32
  br i1 %19, label %20, label %10, !llvm.loop !8

20:                                               ; preds = %22, %17
  %21 = load i8, i8* %6, align 1, !tbaa !5
  br label %22

22:                                               ; preds = %12, %20
  %23 = phi i8 [ %21, %20 ], [ 32, %12 ]
  %24 = icmp eq i8 %23, 0
  br i1 %24, label %20, label %25

25:                                               ; preds = %22, %25
  %26 = phi i64 [ %28, %25 ], [ %5, %22 ]
  %27 = phi i8* [ %29, %25 ], [ %6, %22 ]
  %28 = add nuw nsw i64 %26, 1
  %29 = getelementptr inbounds [10000 x i8], [10000 x i8]* %1, i64 0, i64 %28
  %30 = load i8, i8* %29, align 1, !tbaa !5
  store i8 %30, i8* %27, align 1, !tbaa !5
  %31 = load i8, i8* %29, align 1, !tbaa !5
  %32 = icmp eq i8 %31, 0
  br i1 %32, label %17, label %25, !llvm.loop !10

33:                                               ; preds = %4
  %34 = call i32 (i8*, ...) @printf(i8* nonnull dereferenceable(1) getelementptr inbounds ([3 x i8], [3 x i8]* @.str, i64 0, i64 0), i8* nonnull %2)
  call void @llvm.lifetime.end.p0i8(i64 10000, i8* nonnull %2) #4
  ret i32 0
}

; Function Attrs: argmemonly mustprogress nofree nosync nounwind willreturn
declare void @llvm.lifetime.start.p0i8(i64 immarg, i8* nocapture) #1

declare i32 @gets(...) local_unnamed_addr #2

; Function Attrs: nofree nounwind
declare noundef i32 @printf(i8* nocapture noundef readonly, ...) local_unnamed_addr #3

; Function Attrs: argmemonly mustprogress nofree nosync nounwind willreturn
declare void @llvm.lifetime.end.p0i8(i64 immarg, i8* nocapture) #1


!llvm.module.flags = !{!0, !1, !2, !3}
!llvm.ident = !{!4}

!0 = !{i32 1, !"wchar_size", i32 4}
!1 = !{i32 7, !"PIC Level", i32 2}
!2 = !{i32 7, !"PIE Level", i32 2}
!3 = !{i32 7, !"uwtable", i32 1}
!4 = !{!"clang version 13.0.0"}
!5 = !{!6, !6, i64 0}
!6 = !{!"omnipotent char", !7, i64 0}
!7 = !{!"Simple C/C++ TBAA"}
!8 = distinct !{!8, !9}
!9 = !{!"llvm.loop.mustprogress"}
!10 = distinct !{!10, !9}
